; Function Attrs: mustprogress uwtable
define void @_ZN6icu_756Format12setLocaleIDsEPKcS2_(ptr noundef nonnull align 8 dereferenceable(322) %this, ptr noundef %valid, ptr noundef %actual) local_unnamed_addr #8 align 2 {
entry:
  %locBased = alloca %"class.icu_75::LocaleBased", align 8
  %validLocale = getelementptr inbounds i8, ptr %this, i64 165
  %actualLocale = getelementptr inbounds i8, ptr %this, i64 8
  store ptr %validLocale, ptr %locBased, align 8
  %actual.i = getelementptr inbounds i8, ptr %locBased, i64 8
  store ptr %actualLocale, ptr %actual.i, align 8
  call void @_ZN6icu_7511LocaleBased12setLocaleIDsEPKcS2_(ptr noundef nonnull align 8 dereferenceable(16) %locBased, ptr noundef %valid, ptr noundef %actual)
  ret void
}